target datalayout = "e-m:e-p270:32:32-p271:32:32-p272:64:64-i64:64-i128:128-f80:128-n8:16:32:64-S128"
target triple = "x86_64-pc-linux-gnu"

%"class.cv::Vec.3" = type { %"class.cv::Matx.4" }
%"class.cv::Matx.4" = type { [2 x double] }
%"class.cv::Vec.9" = type { %"class.cv::Matx.10" }
%"class.cv::Matx.10" = type { [4 x double] }
%"struct.cv::internal::IntrinsicParams" = type { %"class.cv::Vec.3", %"class.cv::Vec.3", %"class.cv::Vec.9", double, %"class.std::vector" }
%"class.std::vector" = type { %"struct.std::_Vector_base" }
%"struct.std::_Vector_base" = type { %"struct.std::_Vector_base<unsigned char, std::allocator<unsigned char>>::_Vector_impl" }
%"struct.std::_Vector_base<unsigned char, std::allocator<unsigned char>>::_Vector_impl" = type { %"struct.std::_Vector_base<unsigned char, std::allocator<unsigned char>>::_Vector_impl_data" }
%"struct.std::_Vector_base<unsigned char, std::allocator<unsigned char>>::_Vector_impl_data" = type { ptr, ptr, ptr }

; Function Attrs: mustprogress nounwind uwtable
define void @_ZN2cv8internal15IntrinsicParams4InitERKNS_3VecIdLi2EEES5_RKNS2_IdLi4EEERKd(ptr noundef nonnull align 8 dereferenceable(96) %0, ptr noundef nonnull align 8 dereferenceable(16) %1, ptr noundef nonnull align 8 dereferenceable(16) %2, ptr noundef nonnull align 8 dereferenceable(32) %3, ptr noundef nonnull align 8 dereferenceable(8) %4) #9 align 2 {
  %6 = alloca ptr, align 8
  %7 = alloca ptr, align 8
  %8 = alloca ptr, align 8
  %9 = alloca ptr, align 8
  %10 = alloca ptr, align 8
  store ptr %0, ptr %6, align 8, !tbaa !160
  store ptr %1, ptr %7, align 8, !tbaa !32
  store ptr %2, ptr %8, align 8, !tbaa !32
  store ptr %3, ptr %9, align 8, !tbaa !90
  store ptr %4, ptr %10, align 8, !tbaa !104
  %11 = load ptr, ptr %6, align 8
  %12 = load ptr, ptr %8, align 8, !tbaa !32
  %13 = getelementptr inbounds nuw %"struct.cv::internal::IntrinsicParams", ptr %11, i32 0, i32 1
  call void @llvm.memcpy.p0.p0.i64(ptr align 8 %13, ptr align 8 %12, i64 16, i1 false)
  %14 = load ptr, ptr %7, align 8, !tbaa !32
  %15 = getelementptr inbounds nuw %"struct.cv::internal::IntrinsicParams", ptr %11, i32 0, i32 0
  call void @llvm.memcpy.p0.p0.i64(ptr align 8 %15, ptr align 8 %14, i64 16, i1 false)
  %16 = load ptr, ptr %9, align 8, !tbaa !90
  %17 = getelementptr inbounds nuw %"struct.cv::internal::IntrinsicParams", ptr %11, i32 0, i32 2
  call void @llvm.memcpy.p0.p0.i64(ptr align 8 %17, ptr align 8 %16, i64 32, i1 false)
  %18 = load ptr, ptr %10, align 8, !tbaa !104
  %19 = load double, ptr %18, align 8, !tbaa !12
  %20 = getelementptr inbounds nuw %"struct.cv::internal::IntrinsicParams", ptr %11, i32 0, i32 3
  store double %19, ptr %20, align 8, !tbaa !148
  ret void
}